target datalayout = "e-m:e-p270:32:32-p271:32:32-p272:64:64-i64:64-i128:128-f80:128-n8:16:32:64-S128"
target triple = "x86_64-pc-linux-gnu"

@H5S_init_g = global i8 0, align 1
@H5_libterm_g = external global i8, align 1
@H5S_top_package_initialize_s = internal global i8 0, align 1

; Function Attrs: nounwind uwtable
define i32 @H5S_top_term_package() #0 {
  %1 = alloca i32, align 4
  call void @llvm.lifetime.start.p0(i64 4, ptr %1) #7
  store i32 0, ptr %1, align 4, !tbaa !3
  %2 = load i8, ptr @H5S_init_g, align 1, !tbaa !7, !range !9, !noundef !10
  %3 = trunc i8 %2 to i1
  br i1 %3, label %8, label %4

4:                                                ; preds = %0
  %5 = load i8, ptr @H5_libterm_g, align 1, !tbaa !7, !range !9, !noundef !10
  %6 = trunc i8 %5 to i1
  %7 = xor i1 %6, true
  br label %8

8:                                                ; preds = %4, %0
  %9 = phi i1 [ true, %0 ], [ %7, %4 ]
  %10 = xor i1 %9, true
  %11 = xor i1 %10, true
  %12 = zext i1 %11 to i32
  %13 = sext i32 %12 to i64
  %14 = call i64 @llvm.expect.i64(i64 %13, i64 1)
  %15 = icmp ne i64 %14, 0
  br i1 %15, label %16, label %39

16:                                               ; preds = %8
  %17 = load i8, ptr @H5S_top_package_initialize_s, align 1, !tbaa !7, !range !9, !noundef !10
  %18 = trunc i8 %17 to i1
  br i1 %18, label %19, label %38

19:                                               ; preds = %16
  %20 = call i64 @H5I_nmembers(i32 noundef 4)
  %21 = icmp sgt i64 %20, 0
  br i1 %21, label %22, label %26

22:                                               ; preds = %19
  %23 = call i32 @H5I_clear_type(i32 noundef 4, i1 noundef zeroext false, i1 noundef zeroext false)
  %24 = load i32, ptr %1, align 4, !tbaa !3
  %25 = add nsw i32 %24, 1
  store i32 %25, ptr %1, align 4, !tbaa !3
  br label %26

26:                                               ; preds = %22, %19
  %27 = call i64 @H5I_nmembers(i32 noundef 15)
  %28 = icmp sgt i64 %27, 0
  br i1 %28, label %29, label %33

29:                                               ; preds = %26
  %30 = call i32 @H5I_clear_type(i32 noundef 15, i1 noundef zeroext false, i1 noundef zeroext false)
  %31 = load i32, ptr %1, align 4, !tbaa !3
  %32 = add nsw i32 %31, 1
  store i32 %32, ptr %1, align 4, !tbaa !3
  br label %33

33:                                               ; preds = %29, %26
  %34 = load i32, ptr %1, align 4, !tbaa !3
  %35 = icmp eq i32 0, %34
  br i1 %35, label %36, label %37

36:                                               ; preds = %33
  store i8 0, ptr @H5S_top_package_initialize_s, align 1, !tbaa !7
  br label %37

37:                                               ; preds = %36, %33
  br label %38

38:                                               ; preds = %37, %16
  br label %39

39:                                               ; preds = %38, %8
  %40 = load i32, ptr %1, align 4, !tbaa !3
  call void @llvm.lifetime.end.p0(i64 4, ptr %1) #7
  ret i32 %40
}