; Function Attrs: nounwind uwtable
define range(i32 0, 3) i32 @H5S_top_term_package() local_unnamed_addr #0 {
  %1 = load i8, ptr @H5S_init_g, align 1, !tbaa !3, !range !7, !noundef !8
  %2 = trunc nuw i8 %1 to i1
  %3 = load i8, ptr @H5_libterm_g, align 1, !range !7
  %4 = trunc nuw i8 %3 to i1
  %5 = xor i1 %4, true
  %6 = select i1 %2, i1 true, i1 %5
  br i1 %6, label %7, label %.thread9, !prof !9

7:                                                ; preds = %0
  %.b4 = load i1, ptr @H5S_top_package_initialize_s, align 1
  br i1 %.b4, label %8, label %.thread9

8:                                                ; preds = %7
  %9 = tail call i64 @H5I_nmembers(i32 noundef 4) #10
  %10 = icmp slt i64 %9, 1
  br i1 %10, label %11, label %.thread6

11:                                               ; preds = %8
  %12 = tail call i64 @H5I_nmembers(i32 noundef 15) #10
  %13 = icmp sgt i64 %12, 0
  br i1 %13, label %.thread, label %18

.thread6:                                         ; preds = %8
  %14 = tail call i32 @H5I_clear_type(i32 noundef 4, i1 noundef zeroext false, i1 noundef zeroext false) #10
  %15 = tail call i64 @H5I_nmembers(i32 noundef 15) #10
  %16 = icmp sgt i64 %15, 0
  br i1 %16, label %.thread, label %.thread9

.thread:                                          ; preds = %.thread6, %11
  %.18 = phi i32 [ 2, %.thread6 ], [ 1, %11 ]
  %17 = tail call i32 @H5I_clear_type(i32 noundef 15, i1 noundef zeroext false, i1 noundef zeroext false) #10
  br label %.thread9

18:                                               ; preds = %11
  store i1 false, ptr @H5S_top_package_initialize_s, align 1
  br label %.thread9

.thread9:                                         ; preds = %.thread6, %.thread, %7, %18, %0
  %.0 = phi i32 [ 0, %18 ], [ 0, %7 ], [ 0, %0 ], [ %.18, %.thread ], [ 1, %.thread6 ]
  ret i32 %.0
}